ccopy_reg
_reconstructor
p0
(csklearn.ensemble.forest
RandomForestClassifier
p1
c__builtin__
object
p2
Ntp3
Rp4
(dp5
S'warm_start'
p6
I00
sS'base_estimator'
p7
g0
(csklearn.tree.tree
DecisionTreeClassifier
p8
g2
Ntp9
Rp10
(dp11
S'presort'
p12
I00
sS'splitter'
p13
S'best'
p14
sS'tree_'
p15
NsS'n_features_'
p16
NsS'n_outputs_'
p17
NsS'n_classes_'
p18
NsS'min_impurity_split'
p19
F1e-07
sS'classes_'
p20
NsS'max_features_'
p21
NsS'min_samples_leaf'
p22
I1
sS'min_samples_split'
p23
I2
sS'random_state'
p24
NsS'criterion'
p25
S'gini'
p26
sS'min_weight_fraction_leaf'
p27
F0.0
sS'max_leaf_nodes'
p28
NsS'max_features'
p29
NsS'_sklearn_version'
p30
S'0.18.1'
p31
sS'max_depth'
p32
NsS'class_weight'
p33
NsbsS'estimators_'
p34
(lp35
sS'n_jobs'
p36
I1
sS'verbose'
p37
I0
sg28
NsS'bootstrap'
p38
I01
sS'oob_score'
p39
I00
sg22
I1
sS'n_estimators'
p40
I10
sg23
I2
sg24
Nsg25
g26
sS'estimator_params'
p41
(g25
g32
g23
g22
g27
g29
g28
g19
g24
tp42
sg19
F1e-07
sg29
S'auto'
p43
sg30
g31
sg27
F0.0
sg32
Nsg33
Nsb.