(dp0
S'METTS MARK'
p1
(dp2
S'to_messages'
p3
I807
sS'deferral_payments'
p4
I0
sS'f_bonus'
p5
F0.5650638004119315
sS'f_salary'
p6
F0.34448926237513267
sS'expenses'
p7
I94299
sS'poi'
p8
I00
sS'deferred_income'
p9
I0
sS'email_address'
p10
S'mark.metts@enron.com'
p11
sS'long_term_incentive'
p12
I0
sS'r_to'
p13
F0.04708798017348203
sS'restricted_stock_deferred'
p14
I0
sS'shared_receipt_with_poi'
p15
I702
sS'loan_advances'
p16
I0
sS'from_messages'
p17
I29
sS'other'
p18
I1740
sS'director_fees'
p19
I0
sS'r_from'
p20
F0.034482758620689655
sS'bonus'
p21
I600000
sS'total_stock_value'
p22
I585062
sS'from_poi_to_this_person'
p23
I38
sS'from_this_person_to_poi'
p24
I1
sS'restricted_stock'
p25
I585062
sS'f_stock'
p26
F0.5509955953276758
sS'salary'
p27
I365788
sS'total_payments'
p28
I1061827
sS'exercised_stock_options'
p29
I0
ssS'BAXTER JOHN C'
p30
(dp31
g3
S'NaN'
p32
sg4
I1295738
sg5
F0.21297957898551792
sg6
F0.047406059588491506
sg7
I11200
sg8
I00
sg9
I-1386055
sg10
g32
sg12
I1586055
sg13
S'NaN'
p33
sg14
I0
sg15
g32
sg16
I0
sg17
g32
sg18
I2660303
sg19
I0
sg20
g33
sg21
I1200000
sg22
I10623258
sg23
g32
sg24
g32
sg25
I3942714
sg26
F1.8854475135787794
sg27
I267102
sg28
I5634343
sg29
I6680544
ssS'ELLIOTT STEVEN'
p34
(dp35
g3
g32
sg4
I0
sg5
F1.6530877317274766
sg6
F0.8073727712835046
sg7
I78552
sg8
I00
sg9
I-400729
sg10
S'steven.elliott@enron.com'
p36
sg12
I0
sg13
g33
sg14
I0
sg15
g32
sg16
I0
sg17
g32
sg18
I12961
sg19
I0
sg20
g33
sg21
I350000
sg22
I6678735
sg23
g32
sg24
g32
sg25
I1788391
sg26
F31.544385405596884
sg27
I170941
sg28
I211725
sg29
I4890344
ssS'CORDES WILLIAM R'
p37
(dp38
g3
I764
sg4
I0
sg5
F0.0
sg6
F0.0
sg7
I0
sg8
I00
sg9
I0
sg10
S'bill.cordes@enron.com'
p39
sg12
I0
sg13
F0.013089005235602094
sg14
I0
sg15
I58
sg16
I0
sg17
I12
sg18
I0
sg19
I0
sg20
F0.0
sg21
I0
sg22
I1038185
sg23
I10
sg24
I0
sg25
I386335
sg26
F0.0
sg27
I0
sg28
I0
sg29
I651850
ssS'HANNON KEVIN P'
p40
(dp41
g3
I1045
sg4
I0
sg5
F5.196028848352166
sg6
F0.8427716310680957
sg7
I34039
sg8
I01
sg9
I-3117011
sg10
S'kevin.hannon@enron.com'
p42
sg12
I1617011
sg13
F0.03062200956937799
sg14
I0
sg15
I1035
sg16
I0
sg17
I32
sg18
I11350
sg19
I0
sg20
F0.65625
sg21
I1500000
sg22
I6391065
sg23
I32
sg24
I21
sg25
I853064
sg26
F22.13877207446256
sg27
I243293
sg28
I288682
sg29
I5538001
ssS'MORDAUNT KRISTINA M'
p43
(dp44
g3
g32
sg4
I0
sg5
F0.5170861163173286
sg6
F0.42495409866321304
sg7
I35018
sg8
I00
sg9
I0
sg10
S'kristina.mordaunt@enron.com'
p45
sg12
I0
sg13
g33
sg14
I0
sg15
g32
sg16
I0
sg17
g32
sg18
I1411
sg19
I0
sg20
g33
sg21
I325000
sg22
I208510
sg23
g32
sg24
g32
sg25
I208510
sg26
F0.33174654188715746
sg27
I267093
sg28
I628522
sg29
I0
ssS'MEYER ROCKFORD G'
p46
(dp47
g3
I232
sg4
I1848227
sg5
F0.0
sg6
F0.0
sg7
I0
sg8
I00
sg9
I0
sg10
S'rockford.meyer@enron.com'
p48
sg12
I0
sg13
F0.0
sg14
I0
sg15
I22
sg16
I0
sg17
I28
sg18
I0
sg19
I0
sg20
F0.0
sg21
I0
sg22
I955873
sg23
I0
sg24
I0
sg25
I462384
sg26
F0.5171837658469441
sg27
I0
sg28
I1848227
sg29
I493489
ssS'MCMAHON JEFFREY'
p49
(dp50
g3
I2355
sg4
I0
sg5
F0.6341817628350461
sg6
F0.09035821756873738
sg7
I137108
sg8
I00
sg9
I0
sg10
S'jeffrey.mcmahon@enron.com'
p51
sg12
I694862
sg13
F0.024628450106157114
sg14
I0
sg15
I2228
sg16
I0
sg17
I48
sg18
I297353
sg19
I0
sg20
F0.5416666666666666
sg21
I2600000
sg22
I1662855
sg23
I58
sg24
I26
sg25
I558801
sg26
F0.4055970443227195
sg27
I370448
sg28
I4099771
sg29
I1104054
ssS'HORTON STANLEY C'
p52
(dp53
g3
I2350
sg4
I3131860
sg5
F0.0
sg6
F0.0
sg7
I0
sg8
I00
sg9
I0
sg10
S'stanley.horton@enron.com'
p54
sg12
I0
sg13
F0.01872340425531915
sg14
I0
sg15
I1074
sg16
I0
sg17
I1073
sg18
I0
sg19
I0
sg20
F0.013979496738117428
sg21
I0
sg22
I7256648
sg23
I44
sg24
I15
sg25
I2046079
sg26
F2.3170409916152064
sg27
I0
sg28
I3131860
sg29
I5210569
ssS'PIPER GREGORY F'
p55
(dp56
g3
I1238
sg4
I1130036
sg5
F0.23019873632403695
sg6
F0.11342524785210191
sg7
I43057
sg8
I00
sg9
I-33333
sg10
S'greg.piper@enron.com'
p57
sg12
I0
sg13
F0.049273021001615507
sg14
I-409554
sg15
I742
sg16
I0
sg17
I222
sg18
I778
sg19
I0
sg20
F0.21621621621621623
sg21
I400000
sg22
I880290
sg23
I61
sg24
I48
sg25
I409554
sg26
F0.5066041139967162
sg27
I197091
sg28
I1737629
sg29
I880290
ssS'HUMPHREY GENE E'
p58
(dp59
g3
I128
sg4
I2964506
sg5
F0.0
sg6
F0.04216598542556925
sg7
I4994
sg8
I00
sg9
I0
sg10
S'gene.humphrey@enron.com'
p60
sg12
I0
sg13
F0.078125
sg14
I0
sg15
I119
sg16
I0
sg17
I17
sg18
I0
sg19
I0
sg20
F1.0
sg21
I0
sg22
I2282768
sg23
I10
sg24
I17
sg25
I0
sg26
F0.7363235688776036
sg27
I130724
sg28
I3100224
sg29
I2282768
ssS'UMANOFF ADAM S'
p61
(dp62
g3
I111
sg4
I0
sg5
F0.6977242027809893
sg6
F0.2552843485976075
sg7
I53122
sg8
I00
sg9
I0
sg10
S'adam.umanoff@enron.com'
p63
sg12
I0
sg13
F0.10810810810810811
sg14
I0
sg15
I41
sg16
I0
sg17
I18
sg18
I0
sg19
I0
sg20
F0.0
sg21
I788750
sg22
I0
sg23
I12
sg24
I0
sg25
I0
sg26
F0.0
sg27
I288589
sg28
I1130461
sg29
I0
ssS'BLACHMAN JEREMY M'
p64
(dp65
g3
I2475
sg4
I0
sg5
F0.4218707735372872
sg6
F0.12335799209364538
sg7
I84208
sg8
I00
sg9
I0
sg10
S'jeremy.blachman@enron.com'
p66
sg12
I831809
sg13
F0.010101010101010102
sg14
I0
sg15
I2326
sg16
I0
sg17
I14
sg18
I272
sg19
I0
sg20
F0.14285714285714285
sg21
I850000
sg22
I954354
sg23
I25
sg24
I2
sg25
I189041
sg26
F0.4736636002451814
sg27
I248546
sg28
I2014835
sg29
I765313
ssS'SUNDE MARTIN'
p67
(dp68
g3
I2647
sg4
I0
sg5
F0.4530571324460749
sg6
F0.16665124115001434
sg7
I0
sg8
I00
sg9
I0
sg10
S'marty.sunde@enron.com'
p69
sg12
I476451
sg13
F0.013978088401964487
sg14
I0
sg15
I2565
sg16
I0
sg17
I38
sg18
I111122
sg19
I0
sg20
F0.34210526315789475
sg21
I700000
sg22
I698920
sg23
I37
sg24
I13
sg25
I698920
sg26
F0.45235813001315806
sg27
I257486
sg28
I1545059
sg29
I0
ssS'GIBBS DANA R'
p70
(dp71
g3
I169
sg4
I504610
sg5
F0.0
sg6
F0.0
sg7
I0
sg8
I00
sg9
I0
sg10
S'dana.gibbs@enron.com'
p72
sg12
I461912
sg13
F0.0
sg14
I0
sg15
I23
sg16
I0
sg17
I12
sg18
I0
sg19
I0
sg20
F0.0
sg21
I0
sg22
I2218275
sg23
I0
sg24
I0
sg25
I0
sg26
F2.295110716569307
sg27
I0
sg28
I966522
sg29
I2218275
ssS'LOWRY CHARLES P'
p73
(dp74
g3
g32
sg4
I0
sg5
F0.0
sg6
F0.0
sg7
I0
sg8
I00
sg9
I0
sg10
g32
sg12
I0
sg13
g33
sg14
I-153686
sg15
g32
sg16
I0
sg17
g32
sg18
I0
sg19
I0
sg20
g33
sg21
I0
sg22
I372205
sg23
g32
sg24
g32
sg25
I153686
sg26
F0.0
sg27
I0
sg28
I0
sg29
I372205
ssS'COLWELL WESLEY'
p75
(dp76
g3
I1758
sg4
I27610
sg5
F0.8051832328643588
sg6
F0.19360765031428986
sg7
I16514
sg8
I01
sg9
I-144062
sg10
S'wes.colwell@enron.com'
p77
sg12
I0
sg13
F0.13651877133105803
sg14
I0
sg15
I1132
sg16
I0
sg17
I40
sg18
I101740
sg19
I0
sg20
F0.275
sg21
I1200000
sg22
I698242
sg23
I240
sg24
I11
sg25
I698242
sg26
F0.4685106257347297
sg27
I288542
sg28
I1490344
sg29
I0
ssS'MULLER MARK S'
p78
(dp79
g3
I136
sg4
I842924
sg5
F0.3435277804670104
sg6
F0.07859103642331366
sg7
I0
sg8
I00
sg9
I-719000
sg10
S's..muller@enron.com'
p80
sg12
I1725545
sg13
F0.08823529411764706
sg14
I0
sg15
I114
sg16
I0
sg17
I16
sg18
I947
sg19
I0
sg20
F0.0
sg21
I1100000
sg22
I1416848
sg23
I12
sg24
I0
sg25
I360528
sg26
F0.44247877154465703
sg27
I251654
sg28
I3202070
sg29
I1056320
ssS'JACKSON CHARLENE R'
p81
(dp82
g3
I258
sg4
I0
sg5
F0.453577273238578
sg6
F0.5235334032447104
sg7
I10181
sg8
I00
sg9
I0
sg10
S'charlene.jackson@enron.com'
p83
sg12
I0
sg13
F0.09689922480620156
sg14
I0
sg15
I117
sg16
I0
sg17
I56
sg18
I2435
sg19
I0
sg20
F0.3392857142857143
sg21
I250000
sg22
I725735
sg23
I25
sg24
I19
sg25
I540672
sg26
F1.3167076095751977
sg27
I288558
sg28
I551174
sg29
I185063
ssS'WESTFAHL RICHARD K'
p84
(dp85
g3
g32
sg4
I0
sg5
F0.0
sg6
F0.08363872542266133
sg7
I51870
sg8
I00
sg9
I-10800
sg10
S'dick.westfahl@enron.com'
p86
sg12
I256191
sg13
g33
sg14
I0
sg15
g32
sg16
I0
sg17
g32
sg18
I401130
sg19
I0
sg20
g33
sg21
I0
sg22
I384930
sg23
g32
sg24
g32
sg25
I384930
sg26
F0.5050679997638213
sg27
I63744
sg28
I762135
sg29
I0
ssS'WALTERS GARETH W'
p87
(dp88
g3
g32
sg4
I53625
sg5
F0.0
sg6
F0.0
sg7
I33785
sg8
I00
sg9
I0
sg10
g32
sg12
I0
sg13
g33
sg14
I0
sg15
g32
sg16
I0
sg17
g32
sg18
I0
sg19
I0
sg20
g33
sg21
I0
sg22
I1030329
sg23
g32
sg24
g32
sg25
I0
sg26
F11.787312664454868
sg27
I0
sg28
I87410
sg29
I1030329
ssS'WALLS JR ROBERT H'
p89
(dp90
g3
I671
sg4
I0
sg5
F0.47254250102847484
sg6
F0.1985184402761872
sg7
I50936
sg8
I00
sg9
I0
sg10
S'rob.walls@enron.com'
p91
sg12
I540751
sg13
F0.02533532041728763
sg14
I0
sg15
I215
sg16
I0
sg17
I146
sg18
I2
sg19
I0
sg20
F0.0
sg21
I850000
sg22
I5898997
sg23
I17
sg24
I0
sg25
I1552453
sg26
F3.279443289340553
sg27
I357091
sg28
I1798780
sg29
I4346544
ssS'KITCHEN LOUISE'
p92
(dp93
g3
I8305
sg4
I0
sg5
F0.8930780973748977
sg6
F0.07819964674439903
sg7
I5774
sg8
I00
sg9
I0
sg10
S'louise.kitchen@enron.com'
p94
sg12
I0
sg13
F0.030222757375075255
sg14
I0
sg15
I3669
sg16
I0
sg17
I1728
sg18
I93925
sg19
I0
sg20
F0.11226851851851852
sg21
I3100000
sg22
I547143
sg23
I251
sg24
I194
sg25
I466101
sg26
F0.15762626755870765
sg27
I271442
sg28
I3471141
sg29
I81042
ssS'CHAN RONNIE'
p95
(dp96
g3
g32
sg4
I0
sg5
F0.0
sg6
F0.0
sg7
I0
sg8
I00
sg9
I-98784
sg10
g32
sg12
I0
sg13
g33
sg14
I-32460
sg15
g32
sg16
I0
sg17
g32
sg18
I0
sg19
I98784
sg20
g33
sg21
I0
sg22
I0
sg23
g32
sg24
g32
sg25
I32460
sg26
F0.0
sg27
I0
sg28
I0
sg29
I0
ssS'BELFER ROBERT'
p97
(dp98
g3
g32
sg4
I-102500
sg5
F0.0
sg6
F0.0
sg7
I0
sg8
I00
sg9
I0
sg10
g32
sg12
I0
sg13
g33
sg14
I44093
sg15
g32
sg16
I0
sg17
g32
sg18
I0
sg19
I3285
sg20
g33
sg21
I0
sg22
I-44093
sg23
g32
sg24
g32
sg25
I0
sg26
F-0.4301756097560976
sg27
I0
sg28
I102500
sg29
I3285
ssS'SHANKMAN JEFFREY A'
p99
(dp100
g3
I3221
sg4
I0
sg5
F0.6581757605714545
sg6
F0.10007891527369252
sg7
I178979
sg8
I00
sg9
I0
sg10
S'jeffrey.shankman@enron.com'
p101
sg12
I554422
sg13
F0.029183483390251473
sg14
I0
sg15
I1730
sg16
I0
sg17
I2681
sg18
I1191
sg19
I0
sg20
F0.030958597538232
sg21
I2000000
sg22
I2072035
sg23
I94
sg24
I83
sg25
I630137
sg26
F0.6818816060278369
sg27
I304110
sg28
I3038702
sg29
I1441898
ssS'WODRASKA JOHN'
p102
(dp103
g3
g32
sg4
I0
sg5
F0.0
sg6
F0.0
sg7
I0
sg8
I00
sg9
I0
sg10
S'john.wodraska@enron.com'
p104
sg12
I0
sg13
g33
sg14
I0
sg15
g32
sg16
I0
sg17
g32
sg18
I189583
sg19
I0
sg20
g33
sg21
I0
sg22
I0
sg23
g32
sg24
g32
sg25
I0
sg26
F0.0
sg27
I0
sg28
I189583
sg29
I0
ssS'BERGSIEKER RICHARD P'
p105
(dp106
g3
I383
sg4
I0
sg5
F0.4039751151329078
sg6
F0.3036632463440252
sg7
I59175
sg8
I00
sg9
I-485813
sg10
S'rick.bergsieker@enron.com'
p107
sg12
I180250
sg13
F0.010443864229765013
sg14
I0
sg15
I233
sg16
I0
sg17
I59
sg18
I427316
sg19
I0
sg20
F0.0
sg21
I250000
sg22
I659249
sg23
I4
sg24
I0
sg25
I659249
sg26
F1.0652807627050174
sg27
I187922
sg28
I618850
sg29
I0
ssS'URQUHART JOHN A'
p108
(dp109
g3
g32
sg4
I0
sg5
F0.0
sg6
F0.0
sg7
I228656
sg8
I00
sg9
I-36666
sg10
g32
sg12
I0
sg13
g33
sg14
I0
sg15
g32
sg16
I0
sg17
g32
sg18
I0
sg19
I36666
sg20
g33
sg21
I0
sg22
I0
sg23
g32
sg24
g32
sg25
I0
sg26
F0.0
sg27
I0
sg28
I228656
sg29
I0
ssS'BIBI PHILIPPE A'
p110
(dp111
g3
I1607
sg4
I0
sg5
F0.4883783056496091
sg6
F0.10432981554439774
sg7
I38559
sg8
I00
sg9
I0
sg10
S'philippe.bibi@enron.com'
p112
sg12
I369721
sg13
F0.01431238332296204
sg14
I0
sg15
I1336
sg16
I0
sg17
I40
sg18
I425688
sg19
I0
sg20
F0.2
sg21
I1000000
sg22
I1843816
sg23
I23
sg24
I8
sg25
I378082
sg26
F0.9004797340096397
sg27
I213625
sg28
I2047593
sg29
I1465734
ssS'RIEKER PAULA H'
p113
(dp114
g3
I1328
sg4
I214678
sg5
F0.6368847238649804
sg6
F0.22673187153125285
sg7
I33271
sg8
I01
sg9
I-100000
sg10
S'paula.rieker@enron.com'
p115
sg12
I0
sg13
F0.02635542168674699
sg14
I0
sg15
I1258
sg16
I0
sg17
I82
sg18
I1950
sg19
I0
sg20
F0.5853658536585366
sg21
I700000
sg22
I1918887
sg23
I35
sg24
I48
sg25
I283649
sg26
F1.7458711673187153
sg27
I249201
sg28
I1099100
sg29
I1635238
ssS'BECK SALLY W'
p116
(dp117
g3
I7315
sg4
I0
sg5
F0.7223435300721931
sg6
F0.23871389830228631
sg7
I37172
sg8
I00
sg9
I0
sg10
S'sally.beck@enron.com'
p118
sg12
I0
sg13
F0.01968557758031442
sg14
I0
sg15
I2639
sg16
I0
sg17
I4343
sg18
I566
sg19
I0
sg20
F0.08887865530739121
sg21
I700000
sg22
I126027
sg23
I144
sg24
I386
sg25
I126027
sg26
F0.13004969723486898
sg27
I231330
sg28
I969068
sg29
I0
ssS'HAUG DAVID L'
p119
(dp120
g3
I573
sg4
I0
sg5
F0.0
sg6
F0.0
sg7
I475
sg8
I00
sg9
I0
sg10
S'david.haug@enron.com'
p121
sg12
I0
sg13
F0.006980802792321117
sg14
I0
sg15
I471
sg16
I0
sg17
I19
sg18
I0
sg19
I0
sg20
F0.3684210526315789
sg21
I0
sg22
I2217299
sg23
I4
sg24
I7
sg25
I2217299
sg26
F4667.997894736842
sg27
I0
sg28
I475
sg29
I0
ssS'ECHOLS JOHN B'
p122
(dp123
g3
g32
sg4
I0
sg5
F0.07428526432925606
sg6
F0.06769058998842635
sg7
I21530
sg8
I00
sg9
I0
sg10
S'john.echols@enron.com'
p124
sg12
I2234774
sg13
g33
sg14
I0
sg15
g32
sg16
I0
sg17
g32
sg18
I53775
sg19
I0
sg20
g33
sg21
I200000
sg22
I1008941
sg23
g32
sg24
g32
sg25
I407503
sg26
F0.3747472443881197
sg27
I182245
sg28
I2692324
sg29
I601438
ssS'MENDELSOHN JOHN'
p125
(dp126
g3
g32
sg4
I0
sg5
F0.0
sg6
F0.0
sg7
I148
sg8
I00
sg9
I-103750
sg10
g32
sg12
I0
sg13
g33
sg14
I0
sg15
g32
sg16
I0
sg17
g32
sg18
I0
sg19
I103750
sg20
g33
sg21
I0
sg22
I0
sg23
g32
sg24
g32
sg25
I0
sg26
F0.0
sg27
I0
sg28
I148
sg29
I0
ssS'HICKERSON GARY J'
p127
(dp128
g3
I1320
sg4
I0
sg5
F0.8166025873812804
sg6
F0.10173331104488624
sg7
I98849
sg8
I00
sg9
I0
sg10
S'gary.hickerson@enron.com'
p129
sg12
I69223
sg13
F0.030303030303030304
sg14
I0
sg15
I900
sg16
I0
sg17
I27
sg18
I1936
sg19
I0
sg20
F0.037037037037037035
sg21
I1700000
sg22
I441096
sg23
I40
sg24
I1
sg25
I441096
sg26
F0.21188243228443132
sg27
I211788
sg28
I2081796
sg29
I0
ssS'CLINE KENNETH W'
p130
(dp131
g3
g32
sg4
I0
sg5
F0.0
sg6
F0.0
sg7
I0
sg8
I00
sg9
I0
sg10
g32
sg12
I0
sg13
g33
sg14
I-472568
sg15
g32
sg16
I0
sg17
g32
sg18
I0
sg19
I0
sg20
g33
sg21
I0
sg22
I189518
sg23
g32
sg24
g32
sg25
I662086
sg26
F0.0
sg27
I0
sg28
I0
sg29
I0
ssS'LEWIS RICHARD'
p132
(dp133
g3
I952
sg4
I0
sg5
F0.0
sg6
F0.0
sg7
I0
sg8
I00
sg9
I0
sg10
S'richard.lewis@enron.com'
p134
sg12
I0
sg13
F0.01050420168067227
sg14
I0
sg15
I739
sg16
I0
sg17
I26
sg18
I0
sg19
I0
sg20
F0.0
sg21
I0
sg22
I850477
sg23
I10
sg24
I0
sg25
I0
sg26
F0.0
sg27
I0
sg28
I0
sg29
I850477
ssS'HAYES ROBERT E'
p135
(dp136
g3
I504
sg4
I7961
sg5
F0.0
sg6
F0.0
sg7
I0
sg8
I00
sg9
I0
sg10
S'robert.hayes@enron.com'
p137
sg12
I0
sg13
F0.031746031746031744
sg14
I0
sg15
I50
sg16
I0
sg17
I12
sg18
I0
sg19
I0
sg20
F0.0
sg21
I0
sg22
I151418
sg23
I16
sg24
I0
sg25
I151418
sg26
F19.019972365280744
sg27
I0
sg28
I7961
sg29
I0
ssS'MCCARTY DANNY J'
p138
(dp139
g3
I1433
sg4
I0
sg5
F0.0
sg6
F0.0
sg7
I0
sg8
I00
sg9
I0
sg10
S'danny.mccarty@enron.com'
p140
sg12
I0
sg13
F0.017445917655268667
sg14
I0
sg15
I508
sg16
I0
sg17
I215
sg18
I0
sg19
I0
sg20
F0.009302325581395349
sg21
I0
sg22
I758931
sg23
I25
sg24
I2
sg25
I94556
sg26
F0.0
sg27
I0
sg28
I0
sg29
I664375
ssS'KOPPER MICHAEL J'
p141
(dp142
g3
g32
sg4
I0
sg5
F0.30158952760524343
sg6
F0.08456004873686766
sg7
I118134
sg8
I01
sg9
I0
sg10
S'michael.kopper@enron.com'
p143
sg12
I602671
sg13
g33
sg14
I0
sg15
g32
sg16
I0
sg17
g32
sg18
I907502
sg19
I0
sg20
g33
sg21
I800000
sg22
I985032
sg23
g32
sg24
g32
sg25
I985032
sg26
F0.3713441694450602
sg27
I224305
sg28
I2652612
sg29
I0
ssS'LEFF DANIEL P'
p144
(dp145
g3
I2822
sg4
I0
sg5
F0.3753432514034084
sg6
F0.10274871369867744
sg7
I0
sg8
I00
sg9
I0
sg10
S'dan.leff@enron.com'
p146
sg12
I1387399
sg13
F0.02374202693125443
sg14
I0
sg15
I2672
sg16
I0
sg17
I63
sg18
I3083
sg19
I0
sg20
F0.2222222222222222
sg21
I1000000
sg22
I360528
sg23
I67
sg24
I14
sg25
I360528
sg26
F0.13532175174196803
sg27
I273746
sg28
I2664228
sg29
I0
ssS'LAVORATO JOHN J'
p147
(dp148
g3
I7259
sg4
I0
sg5
F0.767330372269371
sg6
F0.03254324841831629
sg7
I49537
sg8
I00
sg9
I0
sg10
S'john.lavorato@enron.com'
p149
sg12
I2035380
sg13
F0.07273729163796666
sg14
I0
sg15
I3962
sg16
I0
sg17
I2585
sg18
I1552
sg19
I0
sg20
F0.15899419729206962
sg21
I8000000
sg22
I5167144
sg23
I528
sg24
I411
sg25
I1008149
sg26
F0.4956133161361808
sg27
I339288
sg28
I10425757
sg29
I4158995
ssS'BERBERIAN DAVID'
p150
(dp151
g3
g32
sg4
I0
sg5
F0.0
sg6
F0.9479503138212663
sg7
I11892
sg8
I00
sg9
I0
sg10
S'david.berberian@enron.com'
p152
sg12
I0
sg13
g33
sg14
I0
sg15
g32
sg16
I0
sg17
g32
sg18
I0
sg19
I0
sg20
g33
sg21
I0
sg22
I2493616
sg23
g32
sg24
g32
sg25
I869220
sg26
F10.914222187207297
sg27
I216582
sg28
I228474
sg29
I1624396
ssS'DETMERING TIMOTHY J'
p153
(dp154
g3
g32
sg4
I875307
sg5
F0.3528191913716199
sg6
F0.17474927007935526
sg7
I52255
sg8
I00
sg9
I-775241
sg10
S'timothy.detmering@enron.com'
p155
sg12
I415657
sg13
g33
sg14
I-315068
sg15
g32
sg16
I0
sg17
g32
sg18
I1105
sg19
I0
sg20
g33
sg21
I425000
sg22
I2027865
sg23
g32
sg24
g32
sg25
I315068
sg26
F1.6834580929666116
sg27
I210500
sg28
I1204583
sg29
I2027865
ssS'WAKEHAM JOHN'
p156
(dp157
g3
g32
sg4
I0
sg5
F0.0
sg6
F0.0
sg7
I103773
sg8
I00
sg9
I0
sg10
g32
sg12
I0
sg13
g33
sg14
I0
sg15
g32
sg16
I0
sg17
g32
sg18
I0
sg19
I109298
sg20
g33
sg21
I0
sg22
I0
sg23
g32
sg24
g32
sg25
I0
sg26
F0.0
sg27
I0
sg28
I213071
sg29
I0
ssS'POWERS WILLIAM'
p158
(dp159
g3
I653
sg4
I0
sg5
F0.0
sg6
F0.0
sg7
I0
sg8
I00
sg9
I-17500
sg10
S'ken.powers@enron.com'
p160
sg12
I0
sg13
F0.0
sg14
I0
sg15
I12
sg16
I0
sg17
I26
sg18
I0
sg19
I17500
sg20
F0.0
sg21
I0
sg22
I0
sg23
I0
sg24
I0
sg25
I0
sg26
F0.0
sg27
I0
sg28
I0
sg29
I0
ssS'GOLD JOSEPH'
p161
(dp162
g3
g32
sg4
I0
sg5
F0.34932903208377564
sg6
F0.12709987503336093
sg7
I0
sg8
I00
sg9
I0
sg10
S'joe.gold@enron.com'
p163
sg12
I304805
sg13
g33
sg14
I0
sg15
g32
sg16
I0
sg17
g32
sg18
I819288
sg19
I0
sg20
g33
sg21
I750000
sg22
I877611
sg23
g32
sg24
g32
sg25
I441096
sg26
F0.4087666682347659
sg27
I272880
sg28
I2146973
sg29
I436515
ssS'BANNANTINE JAMES M'
p164
(dp165
g3
I566
sg4
I0
sg5
F0.0
sg6
F0.0005206303884426602
sg7
I56301
sg8
I00
sg9
I-5104
sg10
S'james.bannantine@enron.com'
p166
sg12
I0
sg13
F0.06890459363957598
sg14
I-560222
sg15
I465
sg16
I0
sg17
I29
sg18
I864523
sg19
I0
sg20
F0.0
sg21
I0
sg22
I5243487
sg23
I39
sg24
I0
sg25
I1757552
sg26
F5.723099944662557
sg27
I477
sg28
I916197
sg29
I4046157
ssS'DUNCAN JOHN H'
p167
(dp168
g3
g32
sg4
I0
sg5
F0.0
sg6
F0.0
sg7
I0
sg8
I00
sg9
I-25000
sg10
g32
sg12
I0
sg13
g33
sg14
I0
sg15
g32
sg16
I0
sg17
g32
sg18
I0
sg19
I102492
sg20
g33
sg21
I0
sg22
I371750
sg23
g32
sg24
g32
sg25
I0
sg26
F4.797269395550509
sg27
I0
sg28
I77492
sg29
I371750
ssS'SHAPIRO RICHARD S'
p169
(dp170
g3
I15149
sg4
I0
sg5
F0.6146293123338137
sg6
F0.25443384130082036
sg7
I137767
sg8
I00
sg9
I0
sg10
S'richard.shapiro@enron.com'
p171
sg12
I0
sg13
F0.0048848108786058485
sg14
I0
sg15
I4527
sg16
I0
sg17
I1215
sg18
I705
sg19
I0
sg20
F0.053497942386831275
sg21
I650000
sg22
I987001
sg23
I74
sg24
I65
sg25
I379164
sg26
F0.9332919167735176
sg27
I269076
sg28
I1057548
sg29
I607837
ssS'SHERRIFF JOHN R'
p172
(dp173
g3
I3187
sg4
I0
sg5
F0.34598979376240374
sg6
F0.09890233584629565
sg7
I0
sg8
I00
sg9
I0
sg10
S'john.sherriff@enron.com'
p174
sg12
I554422
sg13
F0.008785691873235017
sg14
I0
sg15
I2103
sg16
I0
sg17
I92
sg18
I1852186
sg19
I0
sg20
F0.25
sg21
I1500000
sg22
I3128982
sg23
I28
sg24
I23
sg25
I1293424
sg26
F0.7217305579108491
sg27
I428780
sg28
I4335388
sg29
I1835558
ssS'SHELBY REX'
p175
(dp176
g3
I225
sg4
I0
sg5
F0.09980612659908128
sg6
F0.10571664541627888
sg7
I22884
sg8
I01
sg9
I-4167
sg10
S'rex.shelby@enron.com'
p177
sg12
I0
sg13
F0.057777777777777775
sg14
I0
sg15
I91
sg16
I0
sg17
I39
sg18
I1573324
sg19
I0
sg20
F0.358974358974359
sg21
I200000
sg22
I2493616
sg23
I13
sg24
I14
sg25
I869220
sg26
F1.2443907709274733
sg27
I211844
sg28
I2003885
sg29
I1624396
ssS'LEMAISTRE CHARLES'
p178
(dp179
g3
g32
sg4
I0
sg5
F0.0
sg6
F0.0
sg7
I0
sg8
I00
sg9
I-25000
sg10
g32
sg12
I0
sg13
g33
sg14
I0
sg15
g32
sg16
I0
sg17
g32
sg18
I0
sg19
I112492
sg20
g33
sg21
I0
sg22
I412878
sg23
g32
sg24
g32
sg25
I0
sg26
F4.719037169112605
sg27
I0
sg28
I87492
sg29
I412878
ssS'DEFFNER JOSEPH M'
p180
(dp181
g3
I714
sg4
I0
sg5
F0.49642203815996205
sg6
F0.17053834487928257
sg7
I41626
sg8
I00
sg9
I0
sg10
S'joseph.deffner@enron.com'
p182
sg12
I335349
sg13
F0.16106442577030813
sg14
I0
sg15
I552
sg16
I0
sg17
I74
sg18
I25553
sg19
I0
sg20
F0.05405405405405406
sg21
I600000
sg22
I159211
sg23
I115
sg24
I4
sg25
I141833
sg26
F0.13172641519580955
sg27
I206121
sg28
I1208649
sg29
I17378
ssS'KISHKILL JOSEPH G'
p183
(dp184
g3
g32
sg4
I0
sg5
F0.0
sg6
F0.2471939122934447
sg7
I116335
sg8
I00
sg9
I-51042
sg10
S'joe.kishkill@enron.com'
p185
sg12
I0
sg13
g33
sg14
I0
sg15
g32
sg16
I0
sg17
g32
sg18
I465357
sg19
I0
sg20
g33
sg21
I0
sg22
I1034346
sg23
g32
sg24
g32
sg25
I1034346
sg26
F1.467373910477574
sg27
I174246
sg28
I704896
sg29
I0
ssS'WHALLEY LAWRENCE G'
p186
(dp187
g3
I6019
sg4
I0
sg5
F0.6413581057189047
sg6
F0.10910869608904103
sg7
I57838
sg8
I00
sg9
I0
sg10
S'greg.whalley@enron.com'
p188
sg12
I808346
sg13
F0.03090214321315833
sg14
I0
sg15
I3920
sg16
I0
sg17
I556
sg18
I301026
sg19
I0
sg20
F0.04316546762589928
sg21
I3000000
sg22
I6079137
sg23
I186
sg24
I24
sg25
I2796177
sg26
F1.2996345969085683
sg27
I510364
sg28
I4677574
sg29
I3282960
ssS'MCCONNELL MICHAEL S'
p189
(dp190
g3
I3329
sg4
I0
sg5
F0.5234695178940917
sg6
F0.17371478715729402
sg7
I81364
sg8
I00
sg9
I0
sg10
S'mike.mcconnell@enron.com'
p191
sg12
I554422
sg13
F0.02763592670471613
sg14
I0
sg15
I2189
sg16
I0
sg17
I2742
sg18
I540
sg19
I0
sg20
F0.07075127644055434
sg21
I1100000
sg22
I3101279
sg23
I92
sg24
I194
sg25
I1478269
sg26
F1.475840929986428
sg27
I365038
sg28
I2101364
sg29
I1623010
ssS'PIRO JIM'
p192
(dp193
g3
I58
sg4
I0
sg5
F0.0
sg6
F0.0
sg7
I0
sg8
I00
sg9
I0
sg10
S'jim.piro@enron.com'
p194
sg12
I0
sg13
F0.0
sg14
I0
sg15
I3
sg16
I0
sg17
I16
sg18
I0
sg19
I0
sg20
F0.0625
sg21
I0
sg22
I47304
sg23
I0
sg24
I1
sg25
I47304
sg26
F0.0
sg27
I0
sg28
I0
sg29
I0
ssS'DELAINEY DAVID W'
p195
(dp196
g3
I3093
sg4
I0
sg5
F0.6318477819720769
sg6
F0.07690914386942319
sg7
I86174
sg8
I01
sg9
I0
sg10
S'david.delainey@enron.com'
p197
sg12
I1294981
sg13
F0.02133850630455868
sg14
I0
sg15
I2097
sg16
I0
sg17
I3069
sg18
I1661
sg19
I0
sg20
F0.198435972629521
sg21
I3000000
sg22
I3614261
sg23
I66
sg24
I609
sg25
I1323148
sg26
F0.7612209321060602
sg27
I365163
sg28
I4747979
sg29
I2291113
ssS'SULLIVAN-SHAKLOVITZ COLLEEN'
p198
(dp199
g3
g32
sg4
I181993
sg5
F0.10006444150032621
sg6
F0.162883897229816
sg7
I0
sg8
I00
sg9
I0
sg10
g32
sg12
I554422
sg13
g33
sg14
I0
sg15
g32
sg16
I0
sg17
g32
sg18
I162
sg19
I0
sg20
g33
sg21
I100000
sg22
I1362375
sg23
g32
sg24
g32
sg25
I0
sg26
F1.3632529348900693
sg27
I162779
sg28
I999356
sg29
I1362375
ssS'LINDHOLM TOD A'
p200
(dp201
g3
g32
sg4
I204075
sg5
F0.22833943570475254
sg6
F0.2699622897421934
sg7
I57727
sg8
I00
sg9
I0
sg10
S'tod.lindholm@enron.com'
p202
sg12
I175000
sg13
g33
sg14
I0
sg15
g32
sg16
I0
sg17
g32
sg18
I2630
sg19
I0
sg20
g33
sg21
I200000
sg22
I3064208
sg23
g32
sg24
g32
sg25
I514847
sg26
F3.498397628009942
sg27
I236457
sg28
I875889
sg29
I2549361
ssS'MEYER JEROME J'
p203
(dp204
g3
g32
sg4
I0
sg5
F0.0
sg6
F0.0
sg7
I2151
sg8
I00
sg9
I-38346
sg10
g32
sg12
I0
sg13
g33
sg14
I0
sg15
g32
sg16
I0
sg17
g32
sg18
I0
sg19
I38346
sg20
g33
sg21
I0
sg22
I0
sg23
g32
sg24
g32
sg25
I0
sg26
F0.0
sg27
I0
sg28
I2151
sg29
I0
ssS'LAY KENNETH L'
p205
(dp206
g3
I4273
sg4
I202911
sg5
F0.06759380061719514
sg6
F0.010354607410233042
sg7
I99832
sg8
I01
sg9
I-300000
sg10
S'kenneth.lay@enron.com'
p207
sg12
I3600000
sg13
F0.028785396676807865
sg14
I0
sg15
I2411
sg16
I81525000
sg17
I36
sg18
I10359729
sg19
I0
sg20
F0.4444444444444444
sg21
I7000000
sg22
I49110078
sg23
I123
sg24
I16
sg25
I14761694
sg26
F0.474219545803843
sg27
I1072321
sg28
I103559793
sg29
I34348384
ssS'BUTTS ROBERT H'
p208
(dp209
g3
g32
sg4
I0
sg5
F0.5898164648445794
sg6
F0.20566192349372672
sg7
I9410
sg8
I00
sg9
I-75000
sg10
S'bob.butts@enron.com'
p210
sg12
I175000
sg13
g33
sg14
I0
sg15
g32
sg16
I0
sg17
g32
sg18
I150656
sg19
I0
sg20
g33
sg21
I750000
sg22
I417619
sg23
g32
sg24
g32
sg25
I417619
sg26
F0.32842474964257123
sg27
I261516
sg28
I1271582
sg29
I0
ssS'OLSON CINDY K'
p211
(dp212
g3
I1184
sg4
I77716
sg5
F0.5675124114964394
sg6
F0.2490077991339004
sg7
I63791
sg8
I00
sg9
I0
sg10
S'cindy.olson@enron.com'
p213
sg12
I100000
sg13
F0.016891891891891893
sg14
I0
sg15
I856
sg16
I0
sg17
I52
sg18
I972
sg19
I0
sg20
F0.28846153846153844
sg21
I750000
sg22
I2606763
sg23
I20
sg24
I15
sg25
I969729
sg26
F1.9724938084395907
sg27
I329078
sg28
I1321557
sg29
I1637034
ssS'MCDONALD REBECCA'
p214
(dp215
g3
I894
sg4
I0
sg5
F0.0
sg6
F0.0
sg7
I0
sg8
I00
sg9
I0
sg10
S'rebecca.mcdonald@enron.com'
p216
sg12
I0
sg13
F0.06040268456375839
sg14
I0
sg15
I720
sg16
I0
sg17
I13
sg18
I0
sg19
I0
sg20
F0.07692307692307693
sg21
I0
sg22
I1691366
sg23
I54
sg24
I1
sg25
I934065
sg26
F0.0
sg27
I0
sg28
I0
sg29
I757301
ssS'CUMBERLAND MICHAEL S'
p217
(dp218
g3
g32
sg4
I0
sg5
F0.4022496274549604
sg6
F0.2288478580516761
sg7
I22344
sg8
I00
sg9
I0
sg10
g32
sg12
I275000
sg13
g33
sg14
I0
sg15
g32
sg16
I0
sg17
g32
sg18
I713
sg19
I0
sg20
g33
sg21
I325000
sg22
I207940
sg23
g32
sg24
g32
sg25
I207940
sg26
F0.2573655001014907
sg27
I184899
sg28
I807956
sg29
I0
ssS'GAHN ROBERT S'
p219
(dp220
g3
g32
sg4
I73122
sg5
F0.5661542219779365
sg6
F0.21320363985631563
sg7
I50080
sg8
I00
sg9
I-1042
sg10
g32
sg12
I0
sg13
g33
sg14
I0
sg15
g32
sg16
I0
sg17
g32
sg18
I76547
sg19
I0
sg20
g33
sg21
I509870
sg22
I318607
sg23
g32
sg24
g32
sg25
I235370
sg26
F0.3537778221933521
sg27
I192008
sg28
I900585
sg29
I83237
ssS'MCCLELLAN GEORGE'
p221
(dp222
g3
I1744
sg4
I0
sg5
F0.6824577274309334
sg6
F0.1997424859508494
sg7
I228763
sg8
I00
sg9
I-125000
sg10
S'george.mcclellan@enron.com'
p223
sg12
I0
sg13
F0.02981651376146789
sg14
I0
sg15
I1469
sg16
I0
sg17
I49
sg18
I51587
sg19
I0
sg20
F0.0
sg21
I900000
sg22
I947861
sg23
I52
sg24
I0
sg25
I441096
sg26
F0.7187500710893466
sg27
I263413
sg28
I1318763
sg29
I506765
ssS'HERMANN ROBERT J'
p224
(dp225
g3
g32
sg4
I0
sg5
F0.5395152532523135
sg6
F0.20244384995001777
sg7
I48357
sg8
I00
sg9
I-280000
sg10
S'robert.hermann@enron.com'
p226
sg12
I150000
sg13
g33
sg14
I0
sg15
g32
sg16
I0
sg17
g32
sg18
I416441
sg19
I0
sg20
g33
sg21
I700000
sg22
I668132
sg23
g32
sg24
g32
sg25
I480632
sg26
F0.5149534359799639
sg27
I262663
sg28
I1297461
sg29
I187500
ssS'SCRIMSHAW MATTHEW'
p227
(dp228
g3
g32
sg4
I0
sg5
F0.0
sg6
F0.0
sg7
I0
sg8
I00
sg9
I0
sg10
S'matthew.scrimshaw@enron.com'
p229
sg12
I0
sg13
g33
sg14
I0
sg15
g32
sg16
I0
sg17
g32
sg18
I0
sg19
I0
sg20
g33
sg21
I0
sg22
I759557
sg23
g32
sg24
g32
sg25
I0
sg26
F0.0
sg27
I0
sg28
I0
sg29
I759557
ssS'GATHMANN WILLIAM D'
p230
(dp231
g3
g32
sg4
I0
sg5
F0.0
sg6
F0.0
sg7
I0
sg8
I00
sg9
I0
sg10
g32
sg12
I0
sg13
g33
sg14
I-72419
sg15
g32
sg16
I0
sg17
g32
sg18
I0
sg19
I0
sg20
g33
sg21
I0
sg22
I1945360
sg23
g32
sg24
g32
sg25
I264013
sg26
F0.0
sg27
I0
sg28
I0
sg29
I1753766
ssS'HAEDICKE MARK E'
p232
(dp233
g3
I4009
sg4
I2157527
sg5
F0.29799964499172726
sg6
F0.09694705841959127
sg7
I76169
sg8
I00
sg9
I-934484
sg10
S'mark.haedicke@enron.com'
p234
sg12
I983346
sg13
F0.04489897730107259
sg14
I-329825
sg15
I1847
sg16
I0
sg17
I1941
sg18
I52382
sg19
I0
sg20
F0.03142709943328181
sg21
I1150000
sg22
I803094
sg23
I180
sg24
I61
sg25
I524169
sg26
F0.20810584947390107
sg27
I374125
sg28
I3859065
sg29
I608750
ssS'BOWEN JR RAYMOND M'
p235
(dp236
g3
I1858
sg4
I0
sg5
F0.5056958205926081
sg6
F0.10436100837994162
sg7
I65907
sg8
I01
sg9
I-833
sg10
S'raymond.bowen@enron.com'
p237
sg12
I974293
sg13
F0.07534983853606028
sg14
I0
sg15
I1593
sg16
I0
sg17
I27
sg18
I1621
sg19
I0
sg20
F0.5555555555555556
sg21
I1350000
sg22
I252055
sg23
I140
sg24
I15
sg25
I252055
sg26
F0.09441715559960728
sg27
I278601
sg28
I2669589
sg29
I0
ssS'GILLIS JOHN'
p238
(dp239
g3
g32
sg4
I0
sg5
F0.0
sg6
F0.0
sg7
I0
sg8
I00
sg9
I0
sg10
g32
sg12
I0
sg13
g33
sg14
I0
sg15
g32
sg16
I0
sg17
g32
sg18
I0
sg19
I0
sg20
g33
sg21
I0
sg22
I85641
sg23
g32
sg24
g32
sg25
I75838
sg26
F0.0
sg27
I0
sg28
I0
sg29
I9803
ssS'FITZGERALD JAY L'
p240
(dp241
g3
I936
sg4
I0
sg5
F0.24737482303865338
sg6
F0.14076122180545456
sg7
I23870
sg8
I00
sg9
I0
sg10
S'jay.fitzgerald@enron.com'
p242
sg12
I556416
sg13
F0.0010683760683760685
sg14
I0
sg15
I723
sg16
I0
sg17
I16
sg18
I285414
sg19
I0
sg20
F0.5
sg21
I350000
sg22
I1621236
sg23
I1
sg24
I8
sg25
I956775
sg26
F1.145865624582555
sg27
I199157
sg28
I1414857
sg29
I664461
ssS'MORAN MICHAEL P'
p243
(dp244
g3
I672
sg4
I0
sg5
F0.0
sg6
F0.0
sg7
I0
sg8
I00
sg9
I0
sg10
S'michael.moran@enron.com'
p245
sg12
I0
sg13
F0.0
sg14
I0
sg15
I127
sg16
I0
sg17
I19
sg18
I0
sg19
I0
sg20
F0.0
sg21
I0
sg22
I221141
sg23
I0
sg24
I0
sg25
I161602
sg26
F0.0
sg27
I0
sg28
I0
sg29
I59539
ssS'REDMOND BRIAN L'
p246
(dp247
g3
I1671
sg4
I0
sg5
F0.0
sg6
F0.8682943449685732
sg7
I14689
sg8
I00
sg9
I0
sg10
S'brian.redmond@enron.com'
p248
sg12
I0
sg13
F0.12208258527827648
sg14
I0
sg15
I1063
sg16
I0
sg17
I221
sg18
I0
sg19
I0
sg20
F0.22171945701357465
sg21
I0
sg22
I7890324
sg23
I204
sg24
I49
sg25
I381285
sg26
F70.74683714549579
sg27
I96840
sg28
I111529
sg29
I7509039
ssS'BAZELIDES PHILIP J'
p249
(dp250
g3
g32
sg4
I684694
sg5
F0.0
sg6
F0.0939595598835533
sg7
I0
sg8
I00
sg9
I0
sg10
g32
sg12
I93750
sg13
g33
sg14
I0
sg15
g32
sg16
I0
sg17
g32
sg18
I874
sg19
I0
sg20
g33
sg21
I0
sg22
I1599641
sg23
g32
sg24
g32
sg25
I0
sg26
F1.8597535738534372
sg27
I80818
sg28
I860136
sg29
I1599641
ssS'BELDEN TIMOTHY N'
p251
(dp252
g3
I7991
sg4
I2144013
sg5
F0.9542624640333864
sg6
F0.03889738132153562
sg7
I17355
sg8
I01
sg9
I-2334434
sg10
S'tim.belden@enron.com'
p253
sg12
I0
sg13
F0.028532098610937303
sg14
I0
sg15
I5521
sg16
I0
sg17
I484
sg18
I210698
sg19
I0
sg20
F0.2231404958677686
sg21
I5249999
sg22
I1110705
sg23
I228
sg24
I108
sg25
I157569
sg26
F0.20188653180966368
sg27
I213999
sg28
I5501630
sg29
I953136
ssS'DURAN WILLIAM D'
p254
(dp255
g3
I904
sg4
I0
sg5
F0.3582922929416896
sg6
F0.10065242637929396
sg7
I25785
sg8
I00
sg9
I0
sg10
S'w.duran@enron.com'
p256
sg12
I1105218
sg13
F0.1172566371681416
sg14
I0
sg15
I599
sg16
I0
sg17
I12
sg18
I1568
sg19
I0
sg20
F0.25
sg21
I750000
sg22
I1640910
sg23
I106
sg24
I3
sg25
I189041
sg26
F0.7839005418812638
sg27
I210692
sg28
I2093263
sg29
I1451869
ssS'THORN TERENCE H'
p257
(dp258
g3
I266
sg4
I16586
sg5
F0.0
sg6
F0.24366917438419755
sg7
I46145
sg8
I00
sg9
I0
sg10
S'terence.thorn@enron.com'
p259
sg12
I200000
sg13
F0.0
sg14
I0
sg15
I73
sg16
I0
sg17
I41
sg18
I426629
sg19
I0
sg20
F0.0
sg21
I0
sg22
I4817796
sg23
I0
sg24
I0
sg25
I365320
sg26
F5.285841398294811
sg27
I222093
sg28
I911453
sg29
I4452476
ssS'FASTOW ANDREW S'
p260
(dp261
g3
g32
sg4
I0
sg5
F0.5362852674599013
sg6
F0.1817998806146489
sg7
I55921
sg8
I01
sg9
I-1386055
sg10
S'andrew.fastow@enron.com'
p262
sg12
I1736055
sg13
g33
sg14
I0
sg15
g32
sg16
I0
sg17
g32
sg18
I277464
sg19
I0
sg20
g33
sg21
I1300000
sg22
I1794412
sg23
g32
sg24
g32
sg25
I1794412
sg26
F0.7402436302717358
sg27
I440698
sg28
I2424083
sg29
I0
ssS'FOY JOE'
p263
(dp264
g3
I57
sg4
I181755
sg5
F0.0
sg6
F0.0
sg7
I0
sg8
I00
sg9
I0
sg10
S'tracy.foy@enron.com'
p265
sg12
I0
sg13
F0.0
sg14
I0
sg15
I2
sg16
I0
sg17
I13
sg18
I0
sg19
I0
sg20
F0.0
sg21
I0
sg22
I343434
sg23
I0
sg24
I0
sg25
I0
sg26
F1.8895436164067014
sg27
I0
sg28
I181755
sg29
I343434
ssS'CALGER CHRISTOPHER F'
p266
(dp267
g3
I2598
sg4
I0
sg5
F0.7625219835087845
sg6
F0.14651951415759315
sg7
I35818
sg8
I01
sg9
I-262500
sg10
S'christopher.calger@enron.com'
p268
sg12
I375304
sg13
F0.07659738260200154
sg14
I0
sg15
I2188
sg16
I0
sg17
I144
sg18
I486
sg19
I0
sg20
F0.1736111111111111
sg21
I1250000
sg22
I126027
sg23
I199
sg24
I25
sg25
I126027
sg26
F0.07687868641252928
sg27
I240189
sg28
I1639297
sg29
I0
ssS'RICE KENNETH D'
p269
(dp270
g3
I905
sg4
I0
sg5
F3.465003465003465
sg6
F0.8328601128601129
sg7
I46950
sg8
I01
sg9
I-3504386
sg10
S'ken.rice@enron.com'
p271
sg12
I1617011
sg13
F0.04640883977900553
sg14
I0
sg15
I864
sg16
I0
sg17
I18
sg18
I174839
sg19
I0
sg20
F0.2222222222222222
sg21
I1750000
sg22
I22542539
sg23
I42
sg24
I4
sg25
I2748364
sg26
F44.63427185427185
sg27
I420636
sg28
I505050
sg29
I19794175
ssS'KAMINSKI WINCENTY J'
p272
(dp273
g3
I4607
sg4
I0
sg5
F0.368045887961311
sg6
F0.2531244795601116
sg7
I83585
sg8
I00
sg9
I0
sg10
S'vince.kaminski@enron.com'
p274
sg12
I323466
sg13
F0.008899500759713479
sg14
I0
sg15
I583
sg16
I0
sg17
I14368
sg18
I4669
sg19
I0
sg20
F0.011901447661469933
sg21
I400000
sg22
I976037
sg23
I41
sg24
I171
sg25
I126027
sg26
F0.8980660108702353
sg27
I275101
sg28
I1086821
sg29
I850010
ssS'COX DAVID'
p275
(dp276
g3
I102
sg4
I0
sg5
F0.7263529003725282
sg6
F0.28535500044035145
sg7
I27861
sg8
I00
sg9
I-41250
sg10
S'chip.cox@enron.com'
p277
sg12
I0
sg13
F0.0
sg14
I0
sg15
I71
sg16
I0
sg17
I33
sg18
I494
sg19
I0
sg20
F0.12121212121212122
sg21
I800000
sg22
I495633
sg23
I0
sg24
I4
sg25
I378082
sg26
F0.4500055838379216
sg27
I314288
sg28
I1101393
sg29
I117551
ssS'OVERDYKE JR JERE C'
p278
(dp279
g3
g32
sg4
I0
sg5
F0.0
sg6
F0.38008783483527964
sg7
I18834
sg8
I00
sg9
I0
sg10
S'jere.overdyke@enron.com'
p280
sg12
I135836
sg13
g33
sg14
I0
sg15
g32
sg16
I0
sg17
g32
sg18
I176
sg19
I0
sg20
g33
sg21
I0
sg22
I7307594
sg23
g32
sg24
g32
sg25
I2041016
sg26
F29.25530151689239
sg27
I94941
sg28
I249787
sg29
I5266578
ssS'PEREIRA PAULO V. FERRAZ'
p281
(dp282
g3
g32
sg4
I0
sg5
F0.0
sg6
F0.0
sg7
I27942
sg8
I00
sg9
I-101250
sg10
g32
sg12
I0
sg13
g33
sg14
I0
sg15
g32
sg16
I0
sg17
g32
sg18
I0
sg19
I101250
sg20
g33
sg21
I0
sg22
I0
sg23
g32
sg24
g32
sg25
I0
sg26
F0.0
sg27
I0
sg28
I27942
sg29
I0
ssS'STABLER FRANK'
p283
(dp284
g3
g32
sg4
I0
sg5
F0.44960511183027946
sg6
F0.21536264698715119
sg7
I16514
sg8
I00
sg9
I0
sg10
S'frank.stabler@enron.com'
p285
sg12
I0
sg13
g33
sg14
I0
sg15
g32
sg16
I0
sg17
g32
sg18
I356071
sg19
I0
sg20
g33
sg21
I500000
sg22
I511734
sg23
g32
sg24
g32
sg25
I511734
sg26
F0.46015644459471244
sg27
I239502
sg28
I1112087
sg29
I0
ssS'SKILLING JEFFREY K'
p286
(dp287
g3
I3627
sg4
I0
sg5
F0.6449594804206426
sg6
F0.12798506826665756
sg7
I29336
sg8
I01
sg9
I0
sg10
S'jeff.skilling@enron.com'
p288
sg12
I1920000
sg13
F0.0242624758753791
sg14
I0
sg15
I2042
sg16
I0
sg17
I108
sg18
I22122
sg19
I0
sg20
F0.2777777777777778
sg21
I5600000
sg22
I26093672
sg23
I88
sg24
I30
sg25
I6843672
sg26
F3.0052430598904767
sg27
I1111258
sg28
I8682716
sg29
I19250000
ssS'BLAKE JR. NORMAN P'
p289
(dp290
g3
g32
sg4
I0
sg5
F0.0
sg6
F0.0
sg7
I1279
sg8
I00
sg9
I-113784
sg10
g32
sg12
I0
sg13
g33
sg14
I0
sg15
g32
sg16
I0
sg17
g32
sg18
I0
sg19
I113784
sg20
g33
sg21
I0
sg22
I0
sg23
g32
sg24
g32
sg25
I0
sg26
F0.0
sg27
I0
sg28
I1279
sg29
I0
ssS'SHERRICK JEFFREY B'
p291
(dp292
g3
I613
sg4
I0
sg5
F0.0
sg6
F0.0
sg7
I0
sg8
I00
sg9
I0
sg10
S'jeffrey.sherrick@enron.com'
p293
sg12
I0
sg13
F0.0636215334420881
sg14
I0
sg15
I583
sg16
I0
sg17
I25
sg18
I0
sg19
I0
sg20
F0.72
sg21
I0
sg22
I1832468
sg23
I39
sg24
I18
sg25
I405999
sg26
F0.0
sg27
I0
sg28
I0
sg29
I1426469
ssS'PRENTICE JAMES'
p294
(dp295
g3
g32
sg4
I564348
sg5
F0.0
sg6
F0.0
sg7
I0
sg8
I00
sg9
I0
sg10
S'james.prentice@enron.com'
p296
sg12
I0
sg13
g33
sg14
I0
sg15
g32
sg16
I0
sg17
g32
sg18
I0
sg19
I0
sg20
g33
sg21
I0
sg22
I1095040
sg23
g32
sg24
g32
sg25
I208809
sg26
F1.940363038408925
sg27
I0
sg28
I564348
sg29
I886231
ssS'GRAY RODNEY'
p297
(dp298
g3
g32
sg4
I93585
sg5
F0.0
sg6
F0.005768938951282772
sg7
I0
sg8
I00
sg9
I0
sg10
g32
sg12
I365625
sg13
g33
sg14
I0
sg15
g32
sg16
I0
sg17
g32
sg18
I680833
sg19
I0
sg20
g33
sg21
I0
sg22
I0
sg23
g32
sg24
g32
sg25
I0
sg26
F0.0
sg27
I6615
sg28
I1146658
sg29
I0
ssS'PICKERING MARK R'
p299
(dp300
g3
I898
sg4
I0
sg5
F0.21634251346732147
sg6
F0.47237450331364617
sg7
I31653
sg8
I00
sg9
I0
sg10
S'mark.pickering@enron.com'
p301
sg12
I0
sg13
F0.0077951002227171495
sg14
I0
sg15
I728
sg16
I400000
sg17
I67
sg18
I0
sg19
I0
sg20
F0.0
sg21
I300000
sg22
I28798
sg23
I7
sg24
I0
sg25
I0
sg26
F0.020767439009439746
sg27
I655037
sg28
I1386690
sg29
I28798
ssS'NOLES JAMES L'
p302
(dp303
g3
g32
sg4
I774401
sg5
F0.0
sg6
F0.0
sg7
I0
sg8
I00
sg9
I0
sg10
g32
sg12
I0
sg13
g33
sg14
I-94556
sg15
g32
sg16
I0
sg17
g32
sg18
I0
sg19
I0
sg20
g33
sg21
I0
sg22
I368705
sg23
g32
sg24
g32
sg25
I463261
sg26
F0.47611637898194864
sg27
I0
sg28
I774401
sg29
I0
ssS'KEAN STEVEN J'
p304
(dp305
g3
I12754
sg4
I0
sg5
F0.5722388616566773
sg6
F0.23137791684453757
sg7
I41953
sg8
I00
sg9
I0
sg10
S'steven.kean@enron.com'
p306
sg12
I300000
sg13
F0.010976948408342482
sg14
I0
sg15
I3639
sg16
I0
sg17
I6759
sg18
I1231
sg19
I0
sg20
F0.05725699067909454
sg21
I1000000
sg22
I6153642
sg23
I140
sg24
I387
sg25
I4131594
sg26
F3.521353093122719
sg27
I404338
sg28
I1747522
sg29
I2022048
ssS'FOWLER PEGGY'
p307
(dp308
g3
I517
sg4
I0
sg5
F0.0
sg6
F0.0
sg7
I0
sg8
I00
sg9
I0
sg10
S'kulvinder.fowler@enron.com'
p309
sg12
I0
sg13
F0.0
sg14
I0
sg15
I10
sg16
I0
sg17
I36
sg18
I0
sg19
I0
sg20
F0.0
sg21
I0
sg22
I1884748
sg23
I0
sg24
I0
sg25
I560170
sg26
F0.0
sg27
I0
sg28
I0
sg29
I1324578
ssS'WASAFF GEORGE'
p310
(dp311
g3
I400
sg4
I831299
sg5
F0.3141933207333755
sg6
F0.2513507895919837
sg7
I0
sg8
I00
sg9
I-583325
sg10
S'george.wasaff@enron.com'
p312
sg12
I200000
sg13
F0.055
sg14
I0
sg15
I337
sg16
I0
sg17
I30
sg18
I1425
sg19
I0
sg20
F0.23333333333333334
sg21
I325000
sg22
I2056427
sg23
I22
sg24
I7
sg25
I388167
sg26
F1.9880480860793024
sg27
I259996
sg28
I1034395
sg29
I1668260
ssS'WHITE JR THOMAS E'
p313
(dp314
g3
g32
sg4
I0
sg5
F0.23263520370313887
sg6
F0.1641592899766796
sg7
I81353
sg8
I00
sg9
I0
sg10
S'thomas.white@enron.com'
p315
sg12
I0
sg13
g33
sg14
I0
sg15
g32
sg16
I0
sg17
g32
sg18
I1085463
sg19
I0
sg20
g33
sg21
I450000
sg22
I15144123
sg23
g32
sg24
g32
sg25
I13847074
sg26
F7.829013642245313
sg27
I317543
sg28
I1934359
sg29
I1297049
ssS'CHRISTODOULOU DIOMEDES'
p316
(dp317
g3
g32
sg4
I0
sg5
F0.0
sg6
F0.0
sg7
I0
sg8
I00
sg9
I0
sg10
S'diomedes.christodoulou@enron.com'
p318
sg12
I0
sg13
g33
sg14
I0
sg15
g32
sg16
I0
sg17
g32
sg18
I0
sg19
I0
sg20
g33
sg21
I0
sg22
I6077885
sg23
g32
sg24
g32
sg25
I950730
sg26
F0.0
sg27
I0
sg28
I0
sg29
I5127155
ssS'ALLEN PHILLIP K'
p319
(dp320
g3
I2902
sg4
I2869717
sg5
F0.9309965431596617
sg6
F0.04503458847276874
sg7
I13868
sg8
I00
sg9
I-3081055
sg10
S'phillip.allen@enron.com'
p321
sg12
I304805
sg13
F0.016195727084769126
sg14
I-126027
sg15
I1407
sg16
I0
sg17
I2195
sg18
I152
sg19
I0
sg20
F0.029612756264236904
sg21
I4175000
sg22
I1729541
sg23
I47
sg24
I65
sg25
I126027
sg26
F0.38567585443183344
sg27
I201955
sg28
I4484442
sg29
I1729541
ssS'SHARP VICTORIA T'
p322
(dp323
g3
I3136
sg4
I187469
sg5
F0.38058725882661143
sg6
F0.15740200988131386
sg7
I116337
sg8
I00
sg9
I0
sg10
S'vicki.sharp@enron.com'
p324
sg12
I422158
sg13
F0.007653061224489796
sg14
I0
sg15
I2477
sg16
I0
sg17
I136
sg18
I2401
sg19
I0
sg20
F0.04411764705882353
sg21
I600000
sg22
I494136
sg23
I24
sg24
I6
sg25
I213063
sg26
F0.3134364428792441
sg27
I248146
sg28
I1576511
sg29
I281073
ssS'JAEDICKE ROBERT'
p325
(dp326
g3
g32
sg4
I0
sg5
F0.0
sg6
F0.0
sg7
I0
sg8
I00
sg9
I-25000
sg10
g32
sg12
I0
sg13
g33
sg14
I-44093
sg15
g32
sg16
I0
sg17
g32
sg18
I0
sg19
I108750
sg20
g33
sg21
I0
sg22
I431750
sg23
g32
sg24
g32
sg25
I44093
sg26
F5.155223880597015
sg27
I0
sg28
I83750
sg29
I431750
ssS'WINOKUR JR. HERBERT S'
p327
(dp328
g3
g32
sg4
I0
sg5
F0.0
sg6
F0.0
sg7
I1413
sg8
I00
sg9
I-25000
sg10
g32
sg12
I0
sg13
g33
sg14
I0
sg15
g32
sg16
I0
sg17
g32
sg18
I0
sg19
I108579
sg20
g33
sg21
I0
sg22
I0
sg23
g32
sg24
g32
sg25
I0
sg26
F0.0
sg27
I0
sg28
I84992
sg29
I0
ssS'BROWN MICHAEL'
p329
(dp330
g3
I1486
sg4
I0
sg5
F0.0
sg6
F0.0
sg7
I49288
sg8
I00
sg9
I0
sg10
S'michael.brown@enron.com'
p331
sg12
I0
sg13
F0.008748317631224764
sg14
I0
sg15
I761
sg16
I0
sg17
I41
sg18
I0
sg19
I0
sg20
F0.024390243902439025
sg21
I0
sg22
I0
sg23
I13
sg24
I1
sg25
I0
sg26
F0.0
sg27
I0
sg28
I49288
sg29
I0
ssS'BADUM JAMES P'
p332
(dp333
g3
g32
sg4
I178980
sg5
F0.0
sg6
F0.0
sg7
I3486
sg8
I00
sg9
I0
sg10
g32
sg12
I0
sg13
g33
sg14
I0
sg15
g32
sg16
I0
sg17
g32
sg18
I0
sg19
I0
sg20
g33
sg21
I0
sg22
I257817
sg23
g32
sg24
g32
sg25
I0
sg26
F1.412959126631811
sg27
I0
sg28
I182466
sg29
I257817
ssS'HUGHES JAMES A'
p334
(dp335
g3
I719
sg4
I0
sg5
F0.0
sg6
F0.0
sg7
I0
sg8
I00
sg9
I0
sg10
S'james.hughes@enron.com'
p336
sg12
I0
sg13
F0.048678720445062586
sg14
I0
sg15
I589
sg16
I0
sg17
I34
sg18
I0
sg19
I0
sg20
F0.14705882352941177
sg21
I0
sg22
I1118394
sg23
I35
sg24
I5
sg25
I363428
sg26
F0.0
sg27
I0
sg28
I0
sg29
I754966
ssS'REYNOLDS LAWRENCE'
p337
(dp338
g3
g32
sg4
I51365
sg5
F0.2535014893212498
sg6
F0.1936726028265416
sg7
I8409
sg8
I00
sg9
I-200000
sg10
g32
sg12
I156250
sg13
g33
sg14
I-140264
sg15
g32
sg16
I0
sg17
g32
sg18
I202052
sg19
I0
sg20
g33
sg21
I100000
sg22
I4221891
sg23
g32
sg24
g32
sg25
I201483
sg26
F10.702556562519804
sg27
I76399
sg28
I394475
sg29
I4160672
ssS'DIMICHELE RICHARD G'
p339
(dp340
g3
g32
sg4
I0
sg5
F0.42227037042823706
sg6
F0.11096758610409556
sg7
I35812
sg8
I00
sg9
I0
sg10
S'richard.dimichele@enron.com'
p341
sg12
I694862
sg13
g33
sg14
I0
sg15
g32
sg16
I0
sg17
g32
sg18
I374689
sg19
I0
sg20
g33
sg21
I1000000
sg22
I8317782
sg23
g32
sg24
g32
sg25
I126027
sg26
F3.5123528862813225
sg27
I262788
sg28
I2368151
sg29
I8191755
ssS'BHATNAGAR SANJAY'
p342
(dp343
g3
I523
sg4
I0
sg5
F0.0
sg6
F0.0
sg7
I0
sg8
I00
sg9
I0
sg10
S'sanjay.bhatnagar@enron.com'
p344
sg12
I0
sg13
F0.0
sg14
I15456290
sg15
I463
sg16
I0
sg17
I29
sg18
I137864
sg19
I137864
sg20
F0.034482758620689655
sg21
I0
sS'total_stock_value'
p345
I0
sg23
I0
sg24
I1
sg25
I-2604490
sg26
F0.0
sg27
I0
sg28
I15456290
sg29
I2604490
ssS'CARTER REBECCA C'
p346
(dp347
g3
I312
sg4
I0
sg5
F0.6281972623163308
sg6
F0.5482256568325875
sg7
I0
sg8
I00
sg9
I-159792
sg10
S'rebecca.carter@enron.com'
p348
sg12
I75000
sg13
F0.09294871794871795
sg14
I-307301
sg15
I196
sg16
I0
sg17
I15
sg18
I540
sg19
I0
sg20
F0.4666666666666667
sg21
I300000
sg22
I0
sg23
I29
sg24
I7
sg25
I307301
sg26
F0.0
sg27
I261809
sg28
I477557
sg29
I0
ssS'BUCHANAN HAROLD G'
p349
(dp350
g3
I1088
sg4
I0
sg5
F0.47409677453000415
sg6
F0.23516811945721608
sg7
I600
sg8
I00
sg9
I0
sg10
S'john.buchanan@enron.com'
p351
sg12
I304805
sg13
F0.0
sg14
I0
sg15
I23
sg16
I0
sg17
I125
sg18
I1215
sg19
I0
sg20
F0.0
sg21
I500000
sg22
I1014505
sg23
I0
sg24
I0
sg25
I189041
sg26
F0.9619470964891238
sg27
I248017
sg28
I1054637
sg29
I825464
ssS'YEAP SOON'
p352
(dp353
g3
g32
sg4
I0
sg5
F0.0
sg6
F0.0
sg7
I55097
sg8
I00
sg9
I0
sg10
g32
sg12
I0
sg13
g33
sg14
I0
sg15
g32
sg16
I0
sg17
g32
sg18
I0
sg19
I0
sg20
g33
sg21
I0
sg22
I192758
sg23
g32
sg24
g32
sg25
I0
sg26
F3.4985207906056592
sg27
I0
sg28
I55097
sg29
I192758
ssS'MURRAY JULIA H'
p354
(dp355
g3
I2192
sg4
I0
sg5
F0.4924931728133919
sg6
F0.2823020115883644
sg7
I57580
sg8
I00
sg9
I0
sg10
S'julia.murray@enron.com'
p356
sg12
I125000
sg13
F0.005018248175182482
sg14
I0
sg15
I395
sg16
I0
sg17
I45
sg18
I330
sg19
I0
sg20
F0.044444444444444446
sg21
I400000
sg22
I597461
sg23
I11
sg24
I2
sg25
I196983
sg26
F0.7356136588056548
sg27
I229284
sg28
I812194
sg29
I400478
ssS'GARLAND C KEVIN'
p357
(dp358
g3
I209
sg4
I0
sg5
F0.5426216541789208
sg6
F0.14806932023551056
sg7
I48405
sg8
I00
sg9
I0
sg10
S'kevin.garland@enron.com'
p359
sg12
I375304
sg13
F0.04784688995215311
sg14
I0
sg15
I178
sg16
I0
sg17
I44
sg18
I60814
sg19
I0
sg20
F0.6136363636363636
sg21
I850000
sg22
I896153
sg23
I10
sg24
I27
sg25
I259907
sg26
F0.5720847332440029
sg27
I231946
sg28
I1566469
sg29
I636246
ssS'DODSON KEITH'
p360
(dp361
g3
I176
sg4
I0
sg5
F0.21879033946883958
sg6
F0.6907617341947422
sg7
I28164
sg8
I00
sg9
I0
sg10
S'keith.dodson@enron.com'
p362
sg12
I0
sg13
F0.056818181818181816
sg14
I0
sg15
I114
sg16
I0
sg17
I14
sg18
I774
sg19
I0
sg20
F0.21428571428571427
sg21
I70000
sg22
I0
sg23
I10
sg24
I3
sg25
I0
sg26
F0.0
sg27
I221003
sg28
I319941
sg29
I0
ssS'YEAGER F SCOTT'
p363
(dp364
g3
g32
sg4
I0
sg5
F0.0
sg6
F0.4396419650291424
sg7
I53947
sg8
I01
sg9
I0
sg10
S'scott.yeager@enron.com'
p365
sg12
I0
sg13
g33
sg14
I0
sg15
g32
sg16
I0
sg17
g32
sg18
I147950
sg19
I0
sg20
g33
sg21
I0
sg22
I11884758
sg23
g32
sg24
g32
sg25
I3576206
sg26
F32.98572855953372
sg27
I158403
sg28
I360300
sg29
I8308552
ssS'HIRKO JOSEPH'
p366
(dp367
g3
g32
sg4
I10259
sg5
F0.0
sg6
F0.0
sg7
I77978
sg8
I01
sg9
I0
sg10
S'joe.hirko@enron.com'
p368
sg12
I0
sg13
g33
sg14
I0
sg15
g32
sg16
I0
sg17
g32
sg18
I2856
sg19
I0
sg20
g33
sg21
I0
sg22
I30766064
sg23
g32
sg24
g32
sg25
I0
sg26
F337.7434490026676
sg27
I0
sg28
I91093
sg29
I30766064
ssS'DIETRICH JANET R'
p369
(dp370
g3
I2572
sg4
I0
sg5
F0.4253919277627788
sg6
F0.1773175352224516
sg7
I3475
sg8
I00
sg9
I0
sg10
S'janet.dietrich@enron.com'
p371
sg12
I556416
sg13
F0.11858475894245724
sg14
I0
sg15
I1902
sg16
I0
sg17
I63
sg18
I473
sg19
I0
sg20
F0.2222222222222222
sg21
I600000
sg22
I1865087
sg23
I305
sg24
I14
sg25
I315068
sg26
F1.3223215906254964
sg27
I250100
sg28
I1410464
sg29
I1550019
ssS'DERRICK JR. JAMES V'
p372
(dp373
g3
I2181
sg4
I0
sg5
F1.4519556935720106
sg6
F0.8936333557781484
sg7
I51124
sg8
I00
sg9
I-1284000
sg10
S'james.derrick@enron.com'
p374
sg12
I484000
sg13
F0.029344337459880788
sg14
I-1787380
sg15
I1401
sg16
I0
sg17
I909
sg18
I7482
sg19
I0
sg20
F0.022002200220022004
sg21
I800000
sg22
I8831913
sg23
I64
sg24
I20
sg25
I1787380
sg26
F16.02943295685332
sg27
I492375
sg28
I550981
sg29
I8831913
ssS'FREVERT MARK A'
p375
(dp376
g3
I3275
sg4
I6426990
sg5
F0.1159250266482655
sg6
F0.06149428518599881
sg7
I86987
sg8
I00
sg9
I-3367011
sg10
S'mark.frevert@enron.com'
p377
sg12
I1617011
sg13
F0.07389312977099237
sg14
I0
sg15
I2979
sg16
I2000000
sg17
I21
sg18
I7427621
sg19
I0
sg20
F0.2857142857142857
sg21
I2000000
sg22
I14622185
sg23
I242
sg24
I6
sg25
I4188667
sg26
F0.8475385928904341
sg27
I1060932
sg28
I17252530
sg29
I10433518
ssS'PAI LOU L'
p378
(dp379
g3
g32
sg4
I0
sg5
F0.3201656665224854
sg6
F0.08384466458324195
sg7
I32047
sg8
I00
sg9
I0
sg10
S'lou.pai@enron.com'
p380
sg12
I0
sg13
g33
sg14
I0
sg15
g32
sg16
I0
sg17
g32
sg18
I1829457
sg19
I0
sg20
g33
sg21
I1000000
sg22
I23817930
sg23
g32
sg24
g32
sg25
I8453763
sg26
F7.625683433635901
sg27
I261879
sg28
I3123383
sg29
I15364167
ssS'BAY FRANKLIN R'
p381
(dp382
g3
g32
sg4
I260455
sg5
F0.48326921961686414
sg6
F0.2895640428369836
sg7
I129142
sg8
I00
sg9
I-201641
sg10
S'frank.bay@enron.com'
p383
sg12
I0
sg13
g33
sg14
I-82782
sg15
g32
sg16
I0
sg17
g32
sg18
I69
sg19
I0
sg20
g33
sg21
I400000
sg22
I63014
sg23
g32
sg24
g32
sg25
I145796
sg26
F0.0761318165123427
sg27
I239671
sg28
I827696
sg29
I0
ssS'HAYSLETT RODERICK J'
p384
(dp385
g3
I2649
sg4
I0
sg5
F0.0
sg6
F0.0
sg7
I0
sg8
I00
sg9
I0
sg10
S'rod.hayslett@enron.com'
p386
sg12
I0
sg13
F0.01321253303133258
sg14
I0
sg15
I571
sg16
I0
sg17
I1061
sg18
I0
sg19
I0
sg20
F0.03581526861451461
sg21
I0
sg22
I346663
sg23
I35
sg24
I38
sg25
I346663
sg26
F0.0
sg27
I0
sg28
I0
sg29
I0
ssS'FUGH JOHN L'
p387
(dp388
g3
g32
sg4
I50591
sg5
F0.0
sg6
F0.0
sg7
I0
sg8
I00
sg9
I0
sg10
g32
sg12
I0
sg13
g33
sg14
I0
sg15
g32
sg16
I0
sg17
g32
sg18
I0
sg19
I0
sg20
g33
sg21
I0
sg22
I176378
sg23
g32
sg24
g32
sg25
I0
sg26
F3.4863513273111817
sg27
I0
sg28
I50591
sg29
I176378
ssS'FALLON JAMES B'
p389
(dp390
g3
I1755
sg4
I0
sg5
F0.6800241544579664
sg6
F0.08285087886321722
sg7
I95924
sg8
I00
sg9
I0
sg10
S'jim.fallon@enron.com'
p391
sg12
I374347
sg13
F0.023931623931623933
sg14
I0
sg15
I1604
sg16
I0
sg17
I75
sg18
I401481
sg19
I0
sg20
F0.49333333333333335
sg21
I2500000
sg22
I2332399
sg23
I42
sg24
I37
sg25
I1392142
sg26
F0.6344350631334424
sg27
I304588
sg28
I3676340
sg29
I940257
ssS'KOENIG MARK E'
p392
(dp393
g3
I2374
sg4
I0
sg5
F0.44096682606567505
sg6
F0.19525129124535962
sg7
I127017
sg8
I01
sg9
I0
sg10
S'mark.koenig@enron.com'
p394
sg12
I300000
sg13
F0.02232518955349621
sg14
I0
sg15
I2271
sg16
I0
sg17
I61
sg18
I150458
sg19
I0
sg20
F0.2459016393442623
sg21
I700000
sg22
I1920055
sg23
I53
sg24
I15
sg25
I1248318
sg26
F1.2095436560307569
sg27
I309946
sg28
I1587421
sg29
I671737
ssS'SAVAGE FRANK'
p395
(dp396
g3
g32
sg4
I0
sg5
F0.0
sg6
F0.0
sg7
I0
sg8
I00
sg9
I-121284
sg10
g32
sg12
I0
sg13
g33
sg14
I0
sg15
g32
sg16
I0
sg17
g32
sg18
I0
sg19
I125034
sg20
g33
sg21
I0
sg22
I0
sg23
g32
sg24
g32
sg25
I0
sg26
F0.0
sg27
I0
sg28
I3750
sg29
I0
ssS'IZZO LAWRENCE L'
p397
(dp398
g3
I496
sg4
I0
sg5
F0.0
sg6
F0.043076466107225916
sg7
I28093
sg8
I00
sg9
I0
sg10
S'larry.izzo@enron.com'
p399
sg12
I312500
sg13
F0.056451612903225805
sg14
I0
sg15
I437
sg16
I0
sg17
I19
sg18
I1553729
sg19
I0
sg20
F0.2631578947368421
sg21
I0
sg22
I5819980
sg23
I28
sg24
I5
sg25
I3654808
sg26
F2.9399837138486844
sg27
I85274
sg28
I1979596
sg29
I2165172
ssS'TILNEY ELIZABETH A'
p400
(dp401
g3
I460
sg4
I0
sg5
F0.7511398547295521
sg6
F0.6192847646303266
sg7
I0
sg8
I00
sg9
I-575000
sg10
S'elizabeth.tilney@enron.com'
p402
sg12
I275000
sg13
F0.021739130434782608
sg14
I0
sg15
I379
sg16
I0
sg17
I19
sg18
I152055
sg19
I0
sg20
F0.5789473684210527
sg21
I300000
sg22
I1168042
sg23
I10
sg24
I11
sg25
I576792
sg26
F2.924542993993385
sg27
I247338
sg28
I399393
sg29
I591250
ssS'MARTIN AMANDA K'
p403
(dp404
g3
I1522
sg4
I85430
sg5
F0.0
sg6
F0.04157087366076144
sg7
I8211
sg8
I00
sg9
I0
sg10
S'a..martin@enron.com'
p405
sg12
I5145434
sg13
F0.005256241787122208
sg14
I0
sg15
I477
sg16
I0
sg17
I230
sg18
I2818454
sg19
I0
sg20
F0.0
sg21
I0
sg22
I2070306
sg23
I8
sg24
I0
sg25
I0
sg26
F0.24625931483893929
sg27
I349487
sg28
I8407016
sg29
I2070306
ssS'BUY RICHARD B'
p406
(dp407
g3
I3523
sg4
I649584
sg5
F0.38205171961479
sg6
F0.14031740856865596
sg7
I0
sg8
I00
sg9
I-694862
sg10
S'rick.buy@enron.com'
p408
sg12
I769862
sg13
F0.04428044280442804
sg14
I0
sg15
I2333
sg16
I0
sg17
I1053
sg18
I400572
sg19
I0
sg20
F0.06742640075973409
sg21
I900000
sg22
I3444470
sg23
I156
sg24
I71
sg25
I901657
sg26
F1.4621840962906174
sg27
I330546
sg28
I2355702
sg29
I2542813
ssS'CAUSEY RICHARD A'
p409
(dp410
g3
I1892
sg4
I0
sg5
F0.5351147660638778
sg6
F0.22217376460729532
sg7
I30674
sg8
I01
sg9
I-235000
sg10
S'richard.causey@enron.com'
p411
sg12
I350000
sg13
F0.0306553911205074
sg14
I0
sg15
I1585
sg16
I0
sg17
I49
sg18
I307895
sg19
I0
sg20
F0.24489795918367346
sg21
I1000000
sg22
I2502063
sg23
I58
sg24
I12
sg25
I2502063
sg26
F1.338890856922084
sg27
I415189
sg28
I1868758
sg29
I0
ssS'TAYLOR MITCHELL S'
p412
(dp413
g3
I533
sg4
I227449
sg5
F0.5491171568910085
sg6
F0.24272259607948654
sg7
I0
sg8
I00
sg9
I0
sg10
S'mitchell.taylor@enron.com'
p414
sg12
I0
sg13
F0.0
sg14
I0
sg15
I300
sg16
I0
sg17
I29
sg18
I0
sg19
I0
sg20
F0.0
sg21
I600000
sg22
I3745048
sg23
I0
sg24
I0
sg25
I563798
sg26
F3.4274501836339293
sg27
I265214
sg28
I1092663
sg29
I3181250
ssS'DONAHUE JR JEFFREY M'
p415
(dp416
g3
I865
sg4
I0
sg5
F0.9134922809902256
sg6
F0.3181248287201973
sg7
I96268
sg8
I00
sg9
I-300000
sg10
S'jeff.donahue@enron.com'
p417
sg12
I0
sg13
F0.21734104046242775
sg14
I0
sg15
I772
sg16
I0
sg17
I22
sg18
I891
sg19
I0
sg20
F0.5
sg21
I800000
sg22
I1080988
sg23
I188
sg24
I11
sg25
I315068
sg26
F1.2343427423038276
sg27
I278601
sg28
I875760
sg29
I765920
ssS'GLISAN JR BEN F'
p418
(dp419
g3
I873
sg4
I0
sg5
F0.4715928204709012
sg6
F0.21612705968164342
sg7
I125978
sg8
I01
sg9
I0
sg10
S'ben.glisan@enron.com'
p420
sg12
I71023
sg13
F0.05956471935853379
sg14
I0
sg15
I874
sg16
I0
sg17
I16
sg18
I200308
sg19
I0
sg20
F0.375
sg21
I600000
sg22
I778546
sg23
I52
sg24
I6
sg25
I393818
sg26
F0.6119278400105637
sg27
I274975
sg28
I1272284
sg29
I384728
ss.