(lp0
S'poi'
p1
aS'salary'
p2
aS'total_payments'
p3
aS'bonus'
p4
aS'deferred_income'
p5
aS'total_stock_value'
p6
aS'expenses'
p7
aS'exercised_stock_options'
p8
aS'other'
p9
aS'long_term_incentive'
p10
aS'restricted_stock'
p11
aS'to_messages'
p12
aS'from_poi_to_this_person'
p13
aS'from_messages'
p14
aS'from_this_person_to_poi'
p15
aS'shared_receipt_with_poi'
p16
aS'f_bonus'
p17
aS'f_salary'
p18
aS'f_stock'
p19
aS'r_from'
p20
aS'r_to'
p21
a.